target datalayout = "e-m:e-p270:32:32-p271:32:32-p272:64:64-i64:64-i128:128-f80:128-n8:16:32:64-S128"
target triple = "x86_64-pc-linux-gnu"

%struct.DdManager = type { %struct.DdNode, ptr, ptr, ptr, ptr, ptr, ptr, ptr, i32, i32, double, double, double, i32, i32, i32, i32, i32, i32, ptr, ptr, %struct.DdSubtable, i32, i32, i32, i32, i32, i32, i32, double, i32, i32, i32, ptr, i64, double, i32, ptr, ptr, ptr, ptr, ptr, ptr, ptr, i32, ptr, ptr, ptr, ptr, ptr, ptr, i32, i32, i32, double, i32, i32, i32, i32, double, double, i32, i32, i32, i32, i32, i32, i32, i32, i32, ptr, ptr, i32, i32, i32, i32, i32, i32, ptr, ptr, ptr, ptr, ptr, ptr, ptr, ptr, i32, i64, i64, i64, i32, i64, i64, double, double, double, double, double, double, i32, ptr, ptr, i64 }
%struct.DdNode = type { i32, i32, ptr, %union.anon, i64 }
%union.anon = type { %struct.DdChildren }
%struct.DdChildren = type { ptr, ptr }
%struct.DdSubtable = type { ptr, i32, i32, i32, i32, i32, i32, i32, i32, i32, i32, i32 }
%struct.DdHashTable = type { i32, i32, ptr, ptr, ptr, i32, i32, i32, i32, ptr }

; Function Attrs: nounwind uwtable
define ptr @cuddHashTableInit(ptr noundef %0, i32 noundef %1, i32 noundef %2) #0 {
  %4 = alloca ptr, align 8
  %5 = alloca ptr, align 8
  %6 = alloca i32, align 4
  %7 = alloca i32, align 4
  %8 = alloca ptr, align 8
  %9 = alloca i32, align 4
  %10 = alloca i32, align 4
  store ptr %0, ptr %5, align 8, !tbaa !3
  store i32 %1, ptr %6, align 4, !tbaa !8
  store i32 %2, ptr %7, align 4, !tbaa !8
  call void @llvm.lifetime.start.p0(i64 8, ptr %8) #10
  call void @llvm.lifetime.start.p0(i64 4, ptr %9) #10
  %11 = call noalias ptr @malloc(i64 noundef 56) #11
  store ptr %11, ptr %8, align 8, !tbaa !62
  %12 = load ptr, ptr %8, align 8, !tbaa !62
  %13 = icmp eq ptr %12, null
  br i1 %13, label %14, label %17

14:                                               ; preds = %3
  %15 = load ptr, ptr %5, align 8, !tbaa !3
  %16 = getelementptr inbounds nuw %struct.DdManager, ptr %15, i32 0, i32 86
  store i32 1, ptr %16, align 8, !tbaa !12
  store ptr null, ptr %4, align 8
  store i32 1, ptr %10, align 4
  br label %92

17:                                               ; preds = %3
  %18 = load i32, ptr %6, align 4, !tbaa !8
  %19 = load ptr, ptr %8, align 8, !tbaa !62
  %20 = getelementptr inbounds nuw %struct.DdHashTable, ptr %19, i32 0, i32 0
  store i32 %18, ptr %20, align 8, !tbaa !64
  %21 = load ptr, ptr %5, align 8, !tbaa !3
  %22 = load ptr, ptr %8, align 8, !tbaa !62
  %23 = getelementptr inbounds nuw %struct.DdHashTable, ptr %22, i32 0, i32 9
  store ptr %21, ptr %23, align 8, !tbaa !68
  %24 = load ptr, ptr %8, align 8, !tbaa !62
  %25 = getelementptr inbounds nuw %struct.DdHashTable, ptr %24, i32 0, i32 4
  store ptr null, ptr %25, align 8, !tbaa !69
  %26 = load ptr, ptr %8, align 8, !tbaa !62
  %27 = getelementptr inbounds nuw %struct.DdHashTable, ptr %26, i32 0, i32 3
  store ptr null, ptr %27, align 8, !tbaa !70
  %28 = load i32, ptr %6, align 4, !tbaa !8
  %29 = add i32 %28, 1
  %30 = zext i32 %29 to i64
  %31 = mul i64 %30, 8
  %32 = add i64 %31, 8
  %33 = add i64 %32, 8
  %34 = trunc i64 %33 to i32
  %35 = load ptr, ptr %8, align 8, !tbaa !62
  %36 = getelementptr inbounds nuw %struct.DdHashTable, ptr %35, i32 0, i32 1
  store i32 %34, ptr %36, align 4, !tbaa !71
  %37 = load i32, ptr %7, align 4, !tbaa !8
  %38 = icmp ult i32 %37, 2
  br i1 %38, label %39, label %40

39:                                               ; preds = %17
  store i32 2, ptr %7, align 4, !tbaa !8
  br label %40

40:                                               ; preds = %39, %17
  %41 = load i32, ptr %7, align 4, !tbaa !8
  %42 = call i32 @cuddComputeFloorLog2(i32 noundef %41)
  store i32 %42, ptr %9, align 4, !tbaa !8
  %43 = load i32, ptr %9, align 4, !tbaa !8
  %44 = shl i32 1, %43
  %45 = load ptr, ptr %8, align 8, !tbaa !62
  %46 = getelementptr inbounds nuw %struct.DdHashTable, ptr %45, i32 0, i32 5
  store i32 %44, ptr %46, align 8, !tbaa !72
  %47 = load i32, ptr %9, align 4, !tbaa !8
  %48 = sext i32 %47 to i64
  %49 = sub i64 32, %48
  %50 = trunc i64 %49 to i32
  %51 = load ptr, ptr %8, align 8, !tbaa !62
  %52 = getelementptr inbounds nuw %struct.DdHashTable, ptr %51, i32 0, i32 6
  store i32 %50, ptr %52, align 4, !tbaa !73
  %53 = load ptr, ptr %8, align 8, !tbaa !62
  %54 = getelementptr inbounds nuw %struct.DdHashTable, ptr %53, i32 0, i32 5
  %55 = load i32, ptr %54, align 8, !tbaa !72
  %56 = zext i32 %55 to i64
  %57 = mul i64 8, %56
  %58 = call noalias ptr @malloc(i64 noundef %57) #11
  %59 = load ptr, ptr %8, align 8, !tbaa !62
  %60 = getelementptr inbounds nuw %struct.DdHashTable, ptr %59, i32 0, i32 2
  store ptr %58, ptr %60, align 8, !tbaa !74
  %61 = load ptr, ptr %8, align 8, !tbaa !62
  %62 = getelementptr inbounds nuw %struct.DdHashTable, ptr %61, i32 0, i32 2
  %63 = load ptr, ptr %62, align 8, !tbaa !74
  %64 = icmp eq ptr %63, null
  br i1 %64, label %65, label %74

65:                                               ; preds = %40
  %66 = load ptr, ptr %5, align 8, !tbaa !3
  %67 = getelementptr inbounds nuw %struct.DdManager, ptr %66, i32 0, i32 86
  store i32 1, ptr %67, align 8, !tbaa !12
  %68 = load ptr, ptr %8, align 8, !tbaa !62
  %69 = icmp ne ptr %68, null
  br i1 %69, label %70, label %72

70:                                               ; preds = %65
  %71 = load ptr, ptr %8, align 8, !tbaa !62
  call void @free(ptr noundef %71) #10
  store ptr null, ptr %8, align 8, !tbaa !62
  br label %73

72:                                               ; preds = %65
  br label %73

73:                                               ; preds = %72, %70
  store ptr null, ptr %4, align 8
  store i32 1, ptr %10, align 4
  br label %92

74:                                               ; preds = %40
  %75 = load ptr, ptr %8, align 8, !tbaa !62
  %76 = getelementptr inbounds nuw %struct.DdHashTable, ptr %75, i32 0, i32 2
  %77 = load ptr, ptr %76, align 8, !tbaa !74
  %78 = load ptr, ptr %8, align 8, !tbaa !62
  %79 = getelementptr inbounds nuw %struct.DdHashTable, ptr %78, i32 0, i32 5
  %80 = load i32, ptr %79, align 8, !tbaa !72
  %81 = zext i32 %80 to i64
  %82 = mul i64 %81, 8
  call void @llvm.memset.p0.i64(ptr align 8 %77, i8 0, i64 %82, i1 false)
  %83 = load ptr, ptr %8, align 8, !tbaa !62
  %84 = getelementptr inbounds nuw %struct.DdHashTable, ptr %83, i32 0, i32 7
  store i32 0, ptr %84, align 8, !tbaa !75
  %85 = load ptr, ptr %8, align 8, !tbaa !62
  %86 = getelementptr inbounds nuw %struct.DdHashTable, ptr %85, i32 0, i32 5
  %87 = load i32, ptr %86, align 8, !tbaa !72
  %88 = mul i32 %87, 2
  %89 = load ptr, ptr %8, align 8, !tbaa !62
  %90 = getelementptr inbounds nuw %struct.DdHashTable, ptr %89, i32 0, i32 8
  store i32 %88, ptr %90, align 4, !tbaa !76
  %91 = load ptr, ptr %8, align 8, !tbaa !62
  store ptr %91, ptr %4, align 8
  store i32 1, ptr %10, align 4
  br label %92

92:                                               ; preds = %74, %73, %14
  call void @llvm.lifetime.end.p0(i64 4, ptr %9) #10
  call void @llvm.lifetime.end.p0(i64 8, ptr %8) #10
  %93 = load ptr, ptr %4, align 8
  ret ptr %93
}