; Function Attrs: nounwind uwtable
define noalias noundef ptr @cuddHashTableInit(ptr noundef %0, i32 noundef %1, i32 noundef %2) local_unnamed_addr #0 {
  %4 = tail call noalias dereferenceable_or_null(56) ptr @malloc(i64 noundef 56) #12
  %5 = icmp eq ptr %4, null
  br i1 %5, label %6, label %8

6:                                                ; preds = %3
  %7 = getelementptr inbounds nuw i8, ptr %0, i64 624
  store i32 1, ptr %7, align 8, !tbaa !3
  br label %29

8:                                                ; preds = %3
  store i32 %1, ptr %4, align 8, !tbaa !56
  %9 = getelementptr inbounds nuw i8, ptr %4, i64 48
  store ptr %0, ptr %9, align 8, !tbaa !60
  %10 = getelementptr inbounds nuw i8, ptr %4, i64 16
  %11 = shl i32 %1, 3
  %12 = add i32 %11, 24
  %13 = getelementptr inbounds nuw i8, ptr %4, i64 4
  tail call void @llvm.memset.p0.i64(ptr noundef nonnull align 8 dereferenceable(16) %10, i8 0, i64 16, i1 false)
  store i32 %12, ptr %13, align 4, !tbaa !61
  %spec.store.select = tail call i32 @llvm.umax.i32(i32 %2, i32 2)
  %14 = tail call i32 @cuddComputeFloorLog2(i32 noundef %spec.store.select) #13
  %15 = shl nuw i32 1, %14
  %16 = getelementptr inbounds nuw i8, ptr %4, i64 32
  store i32 %15, ptr %16, align 8, !tbaa !62
  %17 = sub i32 32, %14
  %18 = getelementptr inbounds nuw i8, ptr %4, i64 36
  store i32 %17, ptr %18, align 4, !tbaa !63
  %19 = zext i32 %15 to i64
  %20 = shl nuw nsw i64 %19, 3
  %calloc = tail call ptr @calloc(i64 1, i64 %20)
  %21 = getelementptr inbounds nuw i8, ptr %4, i64 8
  store ptr %calloc, ptr %21, align 8, !tbaa !64
  %22 = icmp eq ptr %calloc, null
  br i1 %22, label %23, label %25

23:                                               ; preds = %8
  %24 = getelementptr inbounds nuw i8, ptr %0, i64 624
  store i32 1, ptr %24, align 8, !tbaa !3
  tail call void @free(ptr noundef nonnull %4) #13
  br label %29

25:                                               ; preds = %8
  %26 = getelementptr inbounds nuw i8, ptr %4, i64 40
  store i32 0, ptr %26, align 8, !tbaa !65
  %27 = shl i32 2, %14
  %28 = getelementptr inbounds nuw i8, ptr %4, i64 44
  store i32 %27, ptr %28, align 4, !tbaa !66
  br label %29

29:                                               ; preds = %25, %23, %6
  %.0 = phi ptr [ null, %6 ], [ null, %23 ], [ %4, %25 ]
  ret ptr %.0
}